; Function Attrs: mustprogress nounwind uwtable
define dso_local void @_ZN5clang10extractapi19ObjCContainerRecordD2Ev(ptr noundef nonnull align 8 dereferenceable(464) %0) unnamed_addr #3 align 2 {
  store ptr getelementptr inbounds inrange(-16, 16) (i8, ptr @_ZTVN5clang10extractapi19ObjCContainerRecordE, i64 16), ptr %0, align 8
  %2 = getelementptr inbounds nuw i8, ptr %0, i64 392
  %3 = tail call noundef i64 @_ZNK4llvm15SmallVectorBaseIjE4sizeEv(ptr noundef nonnull align 8 dereferenceable(16) %2) #17
  %4 = load ptr, ptr %2, align 8
  %5 = getelementptr inbounds i8, ptr %0, i64 408
  %6 = icmp eq ptr %4, %5
  br i1 %6, label %_ZN4llvm11SmallVectorIN5clang10extractapi15SymbolReferenceELj1EED2Ev.exit, label %7

7:                                                ; preds = %1
  tail call void @free(ptr noundef %4) #17
  br label %_ZN4llvm11SmallVectorIN5clang10extractapi15SymbolReferenceELj1EED2Ev.exit

_ZN4llvm11SmallVectorIN5clang10extractapi15SymbolReferenceELj1EED2Ev.exit: ; preds = %1, %7
  tail call void @_ZN5clang10extractapi9APIRecordD2Ev(ptr noundef nonnull align 8 dereferenceable(368) %0) #17
  ret void
}